target datalayout = "e-m:e-p270:32:32-p271:32:32-p272:64:64-i64:64-i128:128-f80:128-n8:16:32:64-S128"
target triple = "x86_64-pc-linux-gnu"

%struct.Gia_Man_t_ = type { ptr, ptr, i32, i32, i32, i32, ptr, ptr, i32, i32, i32, ptr, ptr, %struct.Vec_Int_t_, %struct.Vec_Int_t_, i32, i32, i32, %struct.Vec_Int_t_, ptr, ptr, ptr, i32, i32, i32, i32, ptr, ptr, ptr, ptr, ptr, i32, i32, ptr, i32, ptr, ptr, ptr, ptr, ptr, ptr, ptr, ptr, ptr, ptr, ptr, ptr, ptr, ptr, ptr, ptr, ptr, ptr, %struct.Vec_Int_t_, %struct.Vec_Int_t_, ptr, ptr, ptr, ptr, ptr, ptr, ptr, ptr, ptr, ptr, ptr, ptr, ptr, ptr, ptr, ptr, ptr, ptr, ptr, ptr, ptr, i32, float, float, ptr, ptr, i32, ptr, ptr, ptr, ptr, ptr, ptr, ptr, ptr, ptr, ptr, ptr, ptr, ptr, ptr, ptr, i64, i64, ptr, ptr, i32, i32, i32, i32, i32, i32, i32, i32, i32, i32, i32, i32, ptr, ptr, ptr, ptr, ptr, ptr, ptr, ptr, i32, i32, i32, ptr, i32, i32, ptr, ptr, ptr, ptr, ptr, ptr, i32, i32, ptr, %struct.Vec_Int_t_, %struct.Vec_Int_t_, %struct.Vec_Int_t_, ptr, ptr, ptr, i32, i32, i32, i32, ptr, ptr, ptr, ptr, ptr }
%struct.Vec_Int_t_ = type { i32, i32, ptr }
%struct.Gia_Obj_t_ = type <{ i64, i32 }>

@.str.87 = private unnamed_addr constant [18 x i8] c"Updating out %d.\0A\00", align 1

; Function Attrs: inlinehint nounwind uwtable
define internal ptr @Gia_ManObj(ptr noundef %0, i32 noundef %1) #2 {
  %3 = alloca ptr, align 8
  %4 = alloca i32, align 4
  store ptr %0, ptr %3, align 8, !tbaa !3
  store i32 %1, ptr %4, align 4, !tbaa !8
  %5 = load ptr, ptr %3, align 8, !tbaa !3
  %6 = getelementptr inbounds nuw %struct.Gia_Man_t_, ptr %5, i32 0, i32 6
  %7 = load ptr, ptr %6, align 8, !tbaa !36
  %8 = load i32, ptr %4, align 4, !tbaa !8
  %9 = sext i32 %8 to i64
  %10 = getelementptr inbounds %struct.Gia_Obj_t_, ptr %7, i64 %9
  ret ptr %10
}

; Function Attrs: inlinehint nounwind uwtable
define internal i32 @Vec_IntEntry(ptr noundef %0, i32 noundef %1) #2 {
  %3 = alloca ptr, align 8
  %4 = alloca i32, align 4
  store ptr %0, ptr %3, align 8, !tbaa !33
  store i32 %1, ptr %4, align 4, !tbaa !8
  %5 = load ptr, ptr %3, align 8, !tbaa !33
  %6 = getelementptr inbounds nuw %struct.Vec_Int_t_, ptr %5, i32 0, i32 2
  %7 = load ptr, ptr %6, align 8, !tbaa !58
  %8 = load i32, ptr %4, align 4, !tbaa !8
  %9 = sext i32 %8 to i64
  %10 = getelementptr inbounds i32, ptr %7, i64 %9
  %11 = load i32, ptr %10, align 4, !tbaa !8
  ret i32 %11
}

; Function Attrs: inlinehint nounwind uwtable
define internal void @Gia_ObjFlipFaninC0(ptr noundef %0) #2 {
  %2 = alloca ptr, align 8
  store ptr %0, ptr %2, align 8, !tbaa !35
  %3 = load ptr, ptr %2, align 8, !tbaa !35
  %4 = load i64, ptr %3, align 4
  %5 = lshr i64 %4, 29
  %6 = and i64 %5, 1
  %7 = trunc i64 %6 to i32
  %8 = xor i32 %7, 1
  %9 = zext i32 %8 to i64
  %10 = load i64, ptr %3, align 4
  %11 = and i64 %9, 1
  %12 = shl i64 %11, 29
  %13 = and i64 %10, -536870913
  %14 = or i64 %13, %12
  store i64 %14, ptr %3, align 4
  ret void
}

; Function Attrs: inlinehint nounwind uwtable
define internal ptr @Gia_ManCo(ptr noundef %0, i32 noundef %1) #2 {
  %3 = alloca ptr, align 8
  %4 = alloca i32, align 4
  store ptr %0, ptr %3, align 8, !tbaa !3
  store i32 %1, ptr %4, align 4, !tbaa !8
  %5 = load ptr, ptr %3, align 8, !tbaa !3
  %6 = load ptr, ptr %3, align 8, !tbaa !3
  %7 = getelementptr inbounds nuw %struct.Gia_Man_t_, ptr %6, i32 0, i32 12
  %8 = load ptr, ptr %7, align 8, !tbaa !43
  %9 = load i32, ptr %4, align 4, !tbaa !8
  %10 = call i32 @Vec_IntEntry(ptr noundef %8, i32 noundef %9)
  %11 = call ptr @Gia_ManObj(ptr noundef %5, i32 noundef %10)
  ret ptr %11
}

; Function Attrs: inlinehint nounwind uwtable
define internal i32 @Vec_IntSize(ptr noundef %0) #2 {
  %2 = alloca ptr, align 8
  store ptr %0, ptr %2, align 8, !tbaa !33
  %3 = load ptr, ptr %2, align 8, !tbaa !33
  %4 = getelementptr inbounds nuw %struct.Vec_Int_t_, ptr %3, i32 0, i32 1
  %5 = load i32, ptr %4, align 4, !tbaa !34
  ret i32 %5
}

; Function Attrs: nounwind uwtable
define void @Gia_ManUpdateCoPhase(ptr noundef %0, ptr noundef %1) #0 {
  %3 = alloca ptr, align 8
  %4 = alloca ptr, align 8
  %5 = alloca ptr, align 8
  %6 = alloca i32, align 4
  store ptr %0, ptr %3, align 8, !tbaa !3
  store ptr %1, ptr %4, align 8, !tbaa !3
  call void @llvm.lifetime.start.p0(i64 8, ptr %5) #13
  call void @llvm.lifetime.start.p0(i64 4, ptr %6) #13
  %7 = load ptr, ptr %3, align 8, !tbaa !3
  call void @Gia_ManSetPhase(ptr noundef %7)
  %8 = load ptr, ptr %4, align 8, !tbaa !3
  call void @Gia_ManSetPhase(ptr noundef %8)
  store i32 0, ptr %6, align 4, !tbaa !8
  br label %9

9:                                                ; preds = %41, %2
  %10 = load i32, ptr %6, align 4, !tbaa !8
  %11 = load ptr, ptr %3, align 8, !tbaa !3
  %12 = getelementptr inbounds nuw %struct.Gia_Man_t_, ptr %11, i32 0, i32 12
  %13 = load ptr, ptr %12, align 8, !tbaa !43
  %14 = call i32 @Vec_IntSize(ptr noundef %13)
  %15 = icmp slt i32 %10, %14
  br i1 %15, label %16, label %21

16:                                               ; preds = %9
  %17 = load ptr, ptr %3, align 8, !tbaa !3
  %18 = load i32, ptr %6, align 4, !tbaa !8
  %19 = call ptr @Gia_ManCo(ptr noundef %17, i32 noundef %18)
  store ptr %19, ptr %5, align 8, !tbaa !35
  %20 = icmp ne ptr %19, null
  br label %21

21:                                               ; preds = %16, %9
  %22 = phi i1 [ false, %9 ], [ %20, %16 ]
  br i1 %22, label %23, label %44

23:                                               ; preds = %21
  %24 = load ptr, ptr %5, align 8, !tbaa !35
  %25 = load i64, ptr %24, align 4
  %26 = lshr i64 %25, 63
  %27 = trunc i64 %26 to i32
  %28 = load ptr, ptr %4, align 8, !tbaa !3
  %29 = load i32, ptr %6, align 4, !tbaa !8
  %30 = call ptr @Gia_ManCo(ptr noundef %28, i32 noundef %29)
  %31 = load i64, ptr %30, align 4
  %32 = lshr i64 %31, 63
  %33 = trunc i64 %32 to i32
  %34 = xor i32 %27, %33
  %35 = icmp ne i32 %34, 0
  br i1 %35, label %36, label %40

36:                                               ; preds = %23
  %37 = load i32, ptr %6, align 4, !tbaa !8
  %38 = call i32 (ptr, ...) @printf(ptr noundef @.str.87, i32 noundef %37)
  %39 = load ptr, ptr %5, align 8, !tbaa !35
  call void @Gia_ObjFlipFaninC0(ptr noundef %39)
  br label %40

40:                                               ; preds = %36, %23
  br label %41

41:                                               ; preds = %40
  %42 = load i32, ptr %6, align 4, !tbaa !8
  %43 = add nsw i32 %42, 1
  store i32 %43, ptr %6, align 4, !tbaa !8
  br label %9, !llvm.loop !371

44:                                               ; preds = %21
  call void @llvm.lifetime.end.p0(i64 4, ptr %6) #13
  call void @llvm.lifetime.end.p0(i64 8, ptr %5) #13
  ret void
}