; Function Attrs: nounwind uwtable
define void @Gia_ManUpdateCoPhase(ptr noundef %0, ptr noundef %1) local_unnamed_addr #4 {
  tail call void @Gia_ManSetPhase(ptr noundef %0) #32
  tail call void @Gia_ManSetPhase(ptr noundef %1) #32
  %3 = getelementptr i8, ptr %0, i64 32
  %4 = getelementptr inbounds nuw i8, ptr %0, i64 72
  %5 = load ptr, ptr %4, align 8, !tbaa !45
  %6 = getelementptr i8, ptr %5, i64 4
  %.val17 = load i32, ptr %6, align 4, !tbaa !28
  %7 = icmp sgt i32 %.val17, 0
  br i1 %7, label %.lr.ph, label %.critedge

.lr.ph:                                           ; preds = %2
  %8 = getelementptr i8, ptr %1, i64 32
  %9 = getelementptr i8, ptr %1, i64 72
  br label %10

10:                                               ; preds = %.lr.ph, %31
  %11 = phi ptr [ %5, %.lr.ph ], [ %32, %31 ]
  %indvars.iv = phi i64 [ 0, %.lr.ph ], [ %indvars.iv.next, %31 ]
  %.val15 = load ptr, ptr %3, align 8, !tbaa !40
  %12 = getelementptr i8, ptr %11, i64 8
  %.val16.val = load ptr, ptr %12, align 8, !tbaa !29
  %13 = getelementptr inbounds nuw i32, ptr %.val16.val, i64 %indvars.iv
  %14 = load i32, ptr %13, align 4, !tbaa !30
  %15 = sext i32 %14 to i64
  %16 = getelementptr inbounds %struct.Gia_Obj_t_, ptr %.val15, i64 %15
  %.not = icmp eq ptr %.val15, null
  br i1 %.not, label %.critedge, label %17

17:                                               ; preds = %10
  %18 = load i64, ptr %16, align 4
  %.val13 = load ptr, ptr %8, align 8, !tbaa !40
  %.val14 = load ptr, ptr %9, align 8, !tbaa !45
  %19 = getelementptr i8, ptr %.val14, i64 8
  %.val14.val = load ptr, ptr %19, align 8, !tbaa !29
  %20 = getelementptr inbounds nuw i32, ptr %.val14.val, i64 %indvars.iv
  %21 = load i32, ptr %20, align 4, !tbaa !30
  %22 = sext i32 %21 to i64
  %23 = getelementptr inbounds %struct.Gia_Obj_t_, ptr %.val13, i64 %22
  %24 = load i64, ptr %23, align 4
  %25 = xor i64 %24, %18
  %.not12 = icmp sgt i64 %25, -1
  br i1 %.not12, label %31, label %26

26:                                               ; preds = %17
  %27 = trunc nuw nsw i64 %indvars.iv to i32
  %28 = tail call i32 (ptr, ...) @printf(ptr noundef nonnull dereferenceable(1) @.str.87, i32 noundef %27)
  %29 = load i64, ptr %16, align 4
  %30 = xor i64 %29, 536870912
  store i64 %30, ptr %16, align 4
  %.pre = load ptr, ptr %4, align 8, !tbaa !45
  br label %31

31:                                               ; preds = %17, %26
  %32 = phi ptr [ %11, %17 ], [ %.pre, %26 ]
  %indvars.iv.next = add nuw nsw i64 %indvars.iv, 1
  %33 = getelementptr i8, ptr %32, i64 4
  %.val = load i32, ptr %33, align 4, !tbaa !28
  %34 = sext i32 %.val to i64
  %35 = icmp slt i64 %indvars.iv.next, %34
  br i1 %35, label %10, label %.critedge, !llvm.loop !359

.critedge:                                        ; preds = %10, %31, %2
  ret void
}